target datalayout = "e-m:e-p270:32:32-p271:32:32-p272:64:64-i64:64-i128:128-f80:128-n8:16:32:64-S128"
target triple = "x86_64-pc-linux-gnu"

%struct.zstream = type { i64, i64, i64, i64, %struct.z_stream_s, ptr }
%struct.z_stream_s = type { ptr, i32, i64, ptr, i32, i64, ptr, ptr, ptr, ptr, ptr, i32, i64, i64 }
%struct.RString = type { %struct.RBasic, i64, %union.anon }
%struct.RBasic = type { i64, i64 }
%union.anon = type { %struct.anon }
%struct.anon = type { ptr, %union.anon.0 }
%union.anon.0 = type { i64 }
%struct.anon.1 = type { [1 x i8] }

; Function Attrs: inlinehint nounwind sspstrong willreturn memory(read) uwtable
define internal i64 @RB_FL_TEST_RAW(i64 noundef %0, i64 noundef %1) #6 {
  %3 = alloca i64, align 8
  %4 = alloca i64, align 8
  store i64 %0, ptr %3, align 8, !tbaa !6
  store i64 %1, ptr %4, align 8, !tbaa !6
  %5 = load i64, ptr %3, align 8, !tbaa !6
  %6 = inttoptr i64 %5 to ptr
  %7 = getelementptr inbounds nuw %struct.RBasic, ptr %6, i32 0, i32 0
  %8 = load i64, ptr %7, align 8, !tbaa !91
  %9 = load i64, ptr %4, align 8, !tbaa !6
  %10 = and i64 %8, %9
  ret i64 %10
}

; Function Attrs: inlinehint nounwind sspstrong willreturn memory(read) uwtable
define internal zeroext i1 @RB_FL_ANY_RAW(i64 noundef %0, i64 noundef %1) #6 {
  %3 = alloca i64, align 8
  %4 = alloca i64, align 8
  store i64 %0, ptr %3, align 8, !tbaa !6
  store i64 %1, ptr %4, align 8, !tbaa !6
  %5 = load i64, ptr %3, align 8, !tbaa !6
  %6 = load i64, ptr %4, align 8, !tbaa !6
  %7 = call i64 @RB_FL_TEST_RAW(i64 noundef %5, i64 noundef %6) #25
  %8 = icmp ne i64 %7, 0
  ret i1 %8
}

; Function Attrs: inlinehint nounwind sspstrong willreturn memory(read, argmem: readwrite) uwtable
define internal void @rbimpl_rstring_getmem(ptr dead_on_unwind noalias writable sret(%struct.RString) align 8 %0, i64 noundef %1) #9 {
  %3 = alloca i64, align 8
  store i64 %1, ptr %3, align 8, !tbaa !6
  %4 = load i64, ptr %3, align 8, !tbaa !6
  %5 = call zeroext i1 @RB_FL_ANY_RAW(i64 noundef %4, i64 noundef 8192) #25
  br i1 %5, label %6, label %9

6:                                                ; preds = %2
  %7 = load i64, ptr %3, align 8, !tbaa !6
  %8 = inttoptr i64 %7 to ptr
  call void @llvm.memcpy.p0.p0.i64(ptr align 8 %0, ptr align 8 %8, i64 40, i1 false), !tbaa.struct !92
  br label %20

9:                                                ; preds = %2
  %10 = load i64, ptr %3, align 8, !tbaa !6
  %11 = call i64 @RSTRING_LEN(i64 noundef %10) #25
  %12 = getelementptr inbounds nuw %struct.RString, ptr %0, i32 0, i32 1
  store i64 %11, ptr %12, align 8, !tbaa !88
  %13 = load i64, ptr %3, align 8, !tbaa !6
  %14 = inttoptr i64 %13 to ptr
  %15 = getelementptr inbounds nuw %struct.RString, ptr %14, i32 0, i32 2
  %16 = getelementptr inbounds nuw %struct.anon.1, ptr %15, i32 0, i32 0
  %17 = getelementptr inbounds [1 x i8], ptr %16, i64 0, i64 0
  %18 = getelementptr inbounds nuw %struct.RString, ptr %0, i32 0, i32 2
  %19 = getelementptr inbounds nuw %struct.anon, ptr %18, i32 0, i32 0
  store ptr %17, ptr %19, align 8, !tbaa !68
  br label %20

20:                                               ; preds = %9, %6
  ret void
}

; Function Attrs: inlinehint nounwind sspstrong uwtable
define internal ptr @RSTRING_END(i64 noundef %0) #3 {
  %2 = alloca i64, align 8
  %3 = alloca %struct.RString, align 8
  store i64 %0, ptr %2, align 8, !tbaa !6
  call void @llvm.lifetime.start.p0(i64 40, ptr %3) #23
  %4 = load i64, ptr %2, align 8, !tbaa !6
  call void @rbimpl_rstring_getmem(ptr dead_on_unwind writable sret(%struct.RString) align 8 %3, i64 noundef %4) #28
  %5 = getelementptr inbounds nuw %struct.RString, ptr %3, i32 0, i32 2
  %6 = getelementptr inbounds nuw %struct.anon, ptr %5, i32 0, i32 0
  %7 = load ptr, ptr %6, align 8, !tbaa !68
  %8 = getelementptr inbounds nuw %struct.RString, ptr %3, i32 0, i32 1
  %9 = load i64, ptr %8, align 8, !tbaa !88
  %10 = getelementptr inbounds i8, ptr %7, i64 %9
  call void @llvm.lifetime.end.p0(i64 40, ptr %3) #23
  ret ptr %10
}

; Function Attrs: alwaysinline nounwind
define internal ptr @memmove.inline(ptr nonnull %0, ptr nonnull %1, i64 %2) #16 {
  %4 = alloca ptr, align 8
  %5 = alloca ptr, align 8
  %6 = alloca i64, align 8
  store ptr %0, ptr %4, align 8, !tbaa !77
  store ptr %1, ptr %5, align 8, !tbaa !77
  store i64 %2, ptr %6, align 8, !tbaa !6
  %7 = load ptr, ptr %4, align 8, !tbaa !77
  %8 = load ptr, ptr %5, align 8, !tbaa !77
  %9 = load i64, ptr %6, align 8, !tbaa !6
  %10 = load ptr, ptr %4, align 8, !tbaa !77
  %11 = call i64 @llvm.objectsize.i64.p0(ptr %10, i1 false, i1 true, i1 false)
  %12 = call ptr @__memmove_chk(ptr noundef %7, ptr noundef %8, i64 noundef %9, i64 noundef %11) #23
  ret ptr %12
}

; Function Attrs: alwaysinline nounwind
define internal ptr @memcpy.inline(ptr noalias nonnull %0, ptr noalias nonnull %1, i64 %2) #16 {
  %4 = alloca ptr, align 8
  %5 = alloca ptr, align 8
  %6 = alloca i64, align 8
  store ptr %0, ptr %4, align 8, !tbaa !77
  store ptr %1, ptr %5, align 8, !tbaa !77
  store i64 %2, ptr %6, align 8, !tbaa !6
  %7 = load ptr, ptr %4, align 8, !tbaa !77
  %8 = load ptr, ptr %5, align 8, !tbaa !77
  %9 = load i64, ptr %6, align 8, !tbaa !6
  %10 = load ptr, ptr %4, align 8, !tbaa !77
  %11 = call i64 @llvm.objectsize.i64.p0(ptr %10, i1 false, i1 true, i1 false)
  %12 = call ptr @__memcpy_chk(ptr noundef %7, ptr noundef %8, i64 noundef %9, i64 noundef %11) #23
  ret ptr %12
}

; Function Attrs: inlinehint nounwind sspstrong uwtable
define internal ptr @RSTRING_PTR(i64 noundef %0) #3 {
  %2 = alloca i64, align 8
  %3 = alloca ptr, align 8
  %4 = alloca %struct.RString, align 8
  store i64 %0, ptr %2, align 8, !tbaa !6
  call void @llvm.lifetime.start.p0(i64 8, ptr %3) #23
  %5 = load i64, ptr %2, align 8, !tbaa !6
  call void @rbimpl_rstring_getmem(ptr dead_on_unwind writable sret(%struct.RString) align 8 %4, i64 noundef %5) #28
  %6 = getelementptr inbounds nuw %struct.RString, ptr %4, i32 0, i32 2
  %7 = getelementptr inbounds nuw %struct.anon, ptr %6, i32 0, i32 0
  %8 = load ptr, ptr %7, align 8, !tbaa !68
  store ptr %8, ptr %3, align 8, !tbaa !19
  %9 = load ptr, ptr %3, align 8, !tbaa !19
  call void @llvm.lifetime.end.p0(i64 8, ptr %3) #23
  ret ptr %9
}

; Function Attrs: inlinehint nounwind sspstrong willreturn memory(read) uwtable
define internal i64 @RSTRING_LEN(i64 noundef %0) #6 {
  %2 = alloca i64, align 8
  store i64 %0, ptr %2, align 8, !tbaa !6
  %3 = load i64, ptr %2, align 8, !tbaa !6
  %4 = inttoptr i64 %3 to ptr
  %5 = getelementptr inbounds nuw %struct.RString, ptr %4, i32 0, i32 1
  %6 = load i64, ptr %5, align 8, !tbaa !88
  ret i64 %6
}

; Function Attrs: inlinehint nounwind sspstrong willreturn memory(none) uwtable
define internal zeroext i1 @RB_NIL_P(i64 noundef %0) #5 {
  %2 = alloca i64, align 8
  store i64 %0, ptr %2, align 8, !tbaa !6
  %3 = load i64, ptr %2, align 8, !tbaa !6
  %4 = icmp eq i64 %3, 4
  ret i1 %4
}

; Function Attrs: nounwind sspstrong uwtable
define internal i64 @zstream_shift_buffer(ptr noundef %0, i64 noundef %1, i64 noundef %2) #0 {
  %4 = alloca i64, align 8
  %5 = alloca ptr, align 8
  %6 = alloca i64, align 8
  %7 = alloca i64, align 8
  %8 = alloca ptr, align 8
  %9 = alloca i64, align 8
  %10 = alloca i32, align 4
  store ptr %0, ptr %5, align 8, !tbaa !21
  store i64 %1, ptr %6, align 8, !tbaa !6
  store i64 %2, ptr %7, align 8, !tbaa !6
  call void @llvm.lifetime.start.p0(i64 8, ptr %8) #23
  call void @llvm.lifetime.start.p0(i64 8, ptr %9) #23
  %11 = load ptr, ptr %5, align 8, !tbaa !21
  %12 = getelementptr inbounds nuw %struct.zstream, ptr %11, i32 0, i32 1
  %13 = load i64, ptr %12, align 8, !tbaa !35
  %14 = call zeroext i1 @RB_NIL_P(i64 noundef %13) #24
  br i1 %14, label %15, label %16

15:                                               ; preds = %3
  br label %21

16:                                               ; preds = %3
  %17 = load ptr, ptr %5, align 8, !tbaa !21
  %18 = getelementptr inbounds nuw %struct.zstream, ptr %17, i32 0, i32 1
  %19 = load i64, ptr %18, align 8, !tbaa !35
  %20 = call i64 @RSTRING_LEN(i64 noundef %19) #25
  br label %21

21:                                               ; preds = %16, %15
  %22 = phi i64 [ 0, %15 ], [ %20, %16 ]
  store i64 %22, ptr %9, align 8, !tbaa !6
  %23 = load i64, ptr %9, align 8, !tbaa !6
  %24 = load i64, ptr %6, align 8, !tbaa !6
  %25 = icmp sle i64 %23, %24
  br i1 %25, label %26, label %61

26:                                               ; preds = %21
  %27 = load i64, ptr %7, align 8, !tbaa !6
  %28 = call zeroext i1 @RB_NIL_P(i64 noundef %27) #24
  br i1 %28, label %44, label %29

29:                                               ; preds = %26
  %30 = load ptr, ptr %5, align 8, !tbaa !21
  %31 = getelementptr inbounds nuw %struct.zstream, ptr %30, i32 0, i32 0
  %32 = load i64, ptr %31, align 8, !tbaa !33
  %33 = and i64 %32, 4
  %34 = icmp ne i64 %33, 0
  br i1 %34, label %47, label %35

35:                                               ; preds = %29
  %36 = load ptr, ptr %5, align 8, !tbaa !21
  %37 = getelementptr inbounds nuw %struct.zstream, ptr %36, i32 0, i32 0
  %38 = load i64, ptr %37, align 8, !tbaa !33
  %39 = and i64 %38, 16
  %40 = icmp ne i64 %39, 0
  br i1 %40, label %47, label %41

41:                                               ; preds = %35
  %42 = call i32 @rb_block_given_p()
  %43 = icmp ne i32 %42, 0
  br i1 %43, label %44, label %47

44:                                               ; preds = %41, %26
  %45 = load ptr, ptr %5, align 8, !tbaa !21
  %46 = call i64 @zstream_detach_buffer(ptr noundef %45)
  store i64 %46, ptr %4, align 8
  store i32 1, ptr %10, align 4
  br label %136

47:                                               ; preds = %41, %35, %29
  %48 = load ptr, ptr %5, align 8, !tbaa !21
  %49 = getelementptr inbounds nuw %struct.zstream, ptr %48, i32 0, i32 1
  %50 = load i64, ptr %49, align 8, !tbaa !35
  %51 = call ptr @RSTRING_PTR(i64 noundef %50)
  store ptr %51, ptr %8, align 8, !tbaa !19
  %52 = load i64, ptr %7, align 8, !tbaa !6
  %53 = load i64, ptr %9, align 8, !tbaa !6
  %54 = call i64 @rb_str_resize(i64 noundef %52, i64 noundef %53)
  %55 = load i64, ptr %7, align 8, !tbaa !6
  %56 = call ptr @RSTRING_PTR(i64 noundef %55)
  %57 = load ptr, ptr %8, align 8, !tbaa !19
  %58 = load i64, ptr %9, align 8, !tbaa !6
  %59 = call ptr @memcpy.inline(ptr noundef %56, ptr noundef %57, i64 noundef %58) #23
  br label %60

60:                                               ; preds = %47
  store i64 0, ptr %9, align 8, !tbaa !6
  br label %91

61:                                               ; preds = %21
  %62 = load ptr, ptr %5, align 8, !tbaa !21
  %63 = getelementptr inbounds nuw %struct.zstream, ptr %62, i32 0, i32 1
  %64 = load i64, ptr %63, align 8, !tbaa !35
  %65 = call ptr @RSTRING_PTR(i64 noundef %64)
  store ptr %65, ptr %8, align 8, !tbaa !19
  %66 = load i64, ptr %7, align 8, !tbaa !6
  %67 = call zeroext i1 @RB_NIL_P(i64 noundef %66) #24
  br i1 %67, label %68, label %78

68:                                               ; preds = %61
  br i1 false, label %69, label %72

69:                                               ; preds = %68
  %70 = load i64, ptr %6, align 8, !tbaa !6
  %71 = call i1 @llvm.is.constant.i64(i64 %70)
  br label %72

72:                                               ; preds = %69, %68
  %73 = phi i1 [ false, %68 ], [ %71, %69 ]
  %74 = select i1 %73, ptr @rb_str_new_static, ptr @rb_str_new
  %75 = load ptr, ptr %8, align 8, !tbaa !19
  %76 = load i64, ptr %6, align 8, !tbaa !6
  %77 = call i64 %74(ptr noundef %75, i64 noundef %76)
  store i64 %77, ptr %7, align 8, !tbaa !6
  br label %87

78:                                               ; preds = %61
  %79 = load i64, ptr %7, align 8, !tbaa !6
  %80 = load i64, ptr %6, align 8, !tbaa !6
  %81 = call i64 @rb_str_resize(i64 noundef %79, i64 noundef %80)
  %82 = load i64, ptr %7, align 8, !tbaa !6
  %83 = call ptr @RSTRING_PTR(i64 noundef %82)
  %84 = load ptr, ptr %8, align 8, !tbaa !19
  %85 = load i64, ptr %6, align 8, !tbaa !6
  %86 = call ptr @memcpy.inline(ptr noundef %83, ptr noundef %84, i64 noundef %85) #23
  br label %87

87:                                               ; preds = %78, %72
  %88 = load i64, ptr %6, align 8, !tbaa !6
  %89 = load i64, ptr %9, align 8, !tbaa !6
  %90 = sub nsw i64 %89, %88
  store i64 %90, ptr %9, align 8, !tbaa !6
  br label %91

91:                                               ; preds = %87, %60
  %92 = load ptr, ptr %8, align 8, !tbaa !19
  %93 = load ptr, ptr %8, align 8, !tbaa !19
  %94 = load i64, ptr %6, align 8, !tbaa !6
  %95 = getelementptr inbounds i8, ptr %93, i64 %94
  %96 = load i64, ptr %9, align 8, !tbaa !6
  %97 = call ptr @memmove.inline(ptr noundef %92, ptr noundef %95, i64 noundef %96) #23
  %98 = load ptr, ptr %5, align 8, !tbaa !21
  %99 = getelementptr inbounds nuw %struct.zstream, ptr %98, i32 0, i32 1
  %100 = load i64, ptr %99, align 8, !tbaa !35
  %101 = load i64, ptr %9, align 8, !tbaa !6
  call void @rb_str_set_len(i64 noundef %100, i64 noundef %101)
  %102 = load ptr, ptr %5, align 8, !tbaa !21
  %103 = getelementptr inbounds nuw %struct.zstream, ptr %102, i32 0, i32 1
  %104 = load i64, ptr %103, align 8, !tbaa !35
  %105 = call ptr @RSTRING_END(i64 noundef %104)
  %106 = load ptr, ptr %5, align 8, !tbaa !21
  %107 = getelementptr inbounds nuw %struct.zstream, ptr %106, i32 0, i32 4
  %108 = getelementptr inbounds nuw %struct.z_stream_s, ptr %107, i32 0, i32 3
  store ptr %105, ptr %108, align 8, !tbaa !96
  %109 = load ptr, ptr %5, align 8, !tbaa !21
  %110 = getelementptr inbounds nuw %struct.zstream, ptr %109, i32 0, i32 1
  %111 = load i64, ptr %110, align 8, !tbaa !35
  %112 = call i64 @rb_str_capacity(i64 noundef %111) #25
  %113 = load ptr, ptr %5, align 8, !tbaa !21
  %114 = getelementptr inbounds nuw %struct.zstream, ptr %113, i32 0, i32 1
  %115 = load i64, ptr %114, align 8, !tbaa !35
  %116 = call zeroext i1 @RB_NIL_P(i64 noundef %115) #24
  br i1 %116, label %117, label %118

117:                                              ; preds = %91
  br label %123

118:                                              ; preds = %91
  %119 = load ptr, ptr %5, align 8, !tbaa !21
  %120 = getelementptr inbounds nuw %struct.zstream, ptr %119, i32 0, i32 1
  %121 = load i64, ptr %120, align 8, !tbaa !35
  %122 = call i64 @RSTRING_LEN(i64 noundef %121) #25
  br label %123

123:                                              ; preds = %118, %117
  %124 = phi i64 [ 0, %117 ], [ %122, %118 ]
  %125 = sub nsw i64 %112, %124
  store i64 %125, ptr %9, align 8, !tbaa !6
  %126 = load i64, ptr %9, align 8, !tbaa !6
  %127 = icmp sgt i64 %126, 16384
  br i1 %127, label %128, label %129

128:                                              ; preds = %123
  store i64 16384, ptr %9, align 8, !tbaa !6
  br label %129

129:                                              ; preds = %128, %123
  %130 = load i64, ptr %9, align 8, !tbaa !6
  %131 = trunc i64 %130 to i32
  %132 = load ptr, ptr %5, align 8, !tbaa !21
  %133 = getelementptr inbounds nuw %struct.zstream, ptr %132, i32 0, i32 4
  %134 = getelementptr inbounds nuw %struct.z_stream_s, ptr %133, i32 0, i32 4
  store i32 %131, ptr %134, align 8, !tbaa !23
  %135 = load i64, ptr %7, align 8, !tbaa !6
  store i64 %135, ptr %4, align 8
  store i32 1, ptr %10, align 4
  br label %136

136:                                              ; preds = %129, %44
  call void @llvm.lifetime.end.p0(i64 8, ptr %9) #23
  call void @llvm.lifetime.end.p0(i64 8, ptr %8) #23
  %137 = load i64, ptr %4, align 8
  ret i64 %137
}