; Function Attrs: nounwind sspstrong uwtable
define internal fastcc i64 @zstream_shift_buffer(ptr noundef captures(none) %0, i64 noundef %1, i64 noundef %2) unnamed_addr #0 {
  %4 = getelementptr inbounds nuw i8, ptr %0, i64 8
  %5 = load i64, ptr %4, align 8, !tbaa !43
  %6 = icmp eq i64 %5, 4
  br i1 %6, label %11, label %7

7:                                                ; preds = %3
  %8 = inttoptr i64 %5 to ptr
  %9 = getelementptr inbounds nuw i8, ptr %8, i64 16
  %10 = load i64, ptr %9, align 8, !tbaa !21
  br label %11

11:                                               ; preds = %3, %7
  %12 = phi i64 [ %10, %7 ], [ 0, %3 ]
  %.not = icmp sgt i64 %12, %1
  br i1 %.not, label %35, label %13

13:                                               ; preds = %11
  %14 = icmp eq i64 %2, 4
  br i1 %14, label %20, label %15

15:                                               ; preds = %13
  %16 = load i64, ptr %0, align 8, !tbaa !42
  %17 = and i64 %16, 20
  %or.cond = icmp eq i64 %17, 0
  br i1 %or.cond, label %18, label %22

18:                                               ; preds = %15
  %19 = tail call i32 @rb_block_given_p() #18
  %.not48 = icmp eq i32 %19, 0
  br i1 %.not48, label %._crit_edge, label %20

._crit_edge:                                      ; preds = %18
  %.pre = load i64, ptr %4, align 8, !tbaa !43
  br label %22

20:                                               ; preds = %18, %13
  %21 = tail call fastcc i64 @zstream_detach_buffer(ptr noundef nonnull %0)
  br label %69

22:                                               ; preds = %._crit_edge, %15
  %23 = phi i64 [ %.pre, %._crit_edge ], [ %5, %15 ]
  %24 = inttoptr i64 %23 to ptr
  %25 = load i64, ptr %24, align 8, !tbaa !16, !noalias !303
  %26 = and i64 %25, 8192
  %.not.i.i = icmp eq i64 %26, 0
  %27 = getelementptr inbounds nuw i8, ptr %24, i64 24
  br i1 %.not.i.i, label %RSTRING_PTR.exit, label %28

28:                                               ; preds = %22
  %.sroa.2.0.copyload.i = load ptr, ptr %27, align 8
  br label %RSTRING_PTR.exit

RSTRING_PTR.exit:                                 ; preds = %22, %28
  %.sroa.2.0.i = phi ptr [ %.sroa.2.0.copyload.i, %28 ], [ %27, %22 ]
  %29 = tail call i64 @rb_str_resize(i64 noundef %2, i64 noundef %12) #18
  %30 = inttoptr i64 %2 to ptr
  %31 = load i64, ptr %30, align 8, !tbaa !16, !noalias !306
  %32 = and i64 %31, 8192
  %.not.i.i49 = icmp eq i64 %32, 0
  %33 = getelementptr inbounds nuw i8, ptr %30, i64 24
  br i1 %.not.i.i49, label %RSTRING_PTR.exit52, label %34

34:                                               ; preds = %RSTRING_PTR.exit
  %.sroa.2.0.copyload.i50 = load ptr, ptr %33, align 8
  br label %RSTRING_PTR.exit52

RSTRING_PTR.exit52:                               ; preds = %RSTRING_PTR.exit, %34
  %.sroa.2.0.i51 = phi ptr [ %.sroa.2.0.copyload.i50, %34 ], [ %33, %RSTRING_PTR.exit ]
  tail call void @llvm.memcpy.p0.p0.i64(ptr noundef nonnull align 1 %.sroa.2.0.i51, ptr noundef nonnull align 1 %.sroa.2.0.i, i64 noundef %12, i1 noundef false) #18
  br label %53

35:                                               ; preds = %11
  %36 = inttoptr i64 %5 to ptr
  %37 = load i64, ptr %36, align 8, !tbaa !16, !noalias !309
  %38 = and i64 %37, 8192
  %.not.i.i53 = icmp eq i64 %38, 0
  %39 = getelementptr inbounds nuw i8, ptr %36, i64 24
  br i1 %.not.i.i53, label %RSTRING_PTR.exit56, label %40

40:                                               ; preds = %35
  %.sroa.2.0.copyload.i54 = load ptr, ptr %39, align 8
  br label %RSTRING_PTR.exit56

RSTRING_PTR.exit56:                               ; preds = %35, %40
  %.sroa.2.0.i55 = phi ptr [ %.sroa.2.0.copyload.i54, %40 ], [ %39, %35 ]
  %41 = icmp eq i64 %2, 4
  br i1 %41, label %42, label %44

42:                                               ; preds = %RSTRING_PTR.exit56
  %43 = tail call i64 @rb_str_new(ptr noundef %.sroa.2.0.i55, i64 noundef %1) #18
  br label %51

44:                                               ; preds = %RSTRING_PTR.exit56
  %45 = tail call i64 @rb_str_resize(i64 noundef %2, i64 noundef %1) #18
  %46 = inttoptr i64 %2 to ptr
  %47 = load i64, ptr %46, align 8, !tbaa !16, !noalias !312
  %48 = and i64 %47, 8192
  %.not.i.i57 = icmp eq i64 %48, 0
  %49 = getelementptr inbounds nuw i8, ptr %46, i64 24
  br i1 %.not.i.i57, label %RSTRING_PTR.exit60, label %50

50:                                               ; preds = %44
  %.sroa.2.0.copyload.i58 = load ptr, ptr %49, align 8
  br label %RSTRING_PTR.exit60

RSTRING_PTR.exit60:                               ; preds = %44, %50
  %.sroa.2.0.i59 = phi ptr [ %.sroa.2.0.copyload.i58, %50 ], [ %49, %44 ]
  tail call void @llvm.memcpy.p0.p0.i64(ptr noundef nonnull align 1 %.sroa.2.0.i59, ptr noundef nonnull align 1 %.sroa.2.0.i55, i64 noundef %1, i1 noundef false) #18
  br label %51

51:                                               ; preds = %RSTRING_PTR.exit60, %42
  %.1 = phi i64 [ %43, %42 ], [ %2, %RSTRING_PTR.exit60 ]
  %52 = sub nsw i64 %12, %1
  br label %53

53:                                               ; preds = %51, %RSTRING_PTR.exit52
  %.041 = phi i64 [ %2, %RSTRING_PTR.exit52 ], [ %.1, %51 ]
  %.040 = phi ptr [ %.sroa.2.0.i, %RSTRING_PTR.exit52 ], [ %.sroa.2.0.i55, %51 ]
  %.0 = phi i64 [ 0, %RSTRING_PTR.exit52 ], [ %52, %51 ]
  %54 = getelementptr inbounds i8, ptr %.040, i64 %1
  tail call void @llvm.memmove.p0.p0.i64(ptr noundef nonnull align 1 %.040, ptr noundef nonnull align 1 %54, i64 noundef %.0, i1 noundef false) #18
  %55 = load i64, ptr %4, align 8, !tbaa !43
  tail call void @rb_str_set_len(i64 noundef %55, i64 noundef %.0) #18
  %56 = load i64, ptr %4, align 8, !tbaa !43
  %57 = inttoptr i64 %56 to ptr
  %58 = load i64, ptr %57, align 8, !tbaa !16, !noalias !315
  %59 = and i64 %58, 8192
  %.not.i.i61 = icmp eq i64 %59, 0
  %60 = getelementptr inbounds nuw i8, ptr %57, i64 24
  br i1 %.not.i.i61, label %RSTRING_END.exit, label %61

61:                                               ; preds = %53
  %.sroa.5.0.copyload.i = load ptr, ptr %60, align 8
  br label %RSTRING_END.exit

RSTRING_END.exit:                                 ; preds = %53, %61
  %.sroa.5.0.i = phi ptr [ %.sroa.5.0.copyload.i, %61 ], [ %60, %53 ]
  %.sroa.3.0.in.i = getelementptr inbounds nuw i8, ptr %57, i64 16
  %.sroa.3.0.i = load i64, ptr %.sroa.3.0.in.i, align 8, !tbaa !6
  %62 = getelementptr inbounds i8, ptr %.sroa.5.0.i, i64 %.sroa.3.0.i
  %63 = getelementptr inbounds nuw i8, ptr %0, i64 56
  store ptr %62, ptr %63, align 8, !tbaa !47
  %64 = tail call i64 @rb_str_capacity(i64 noundef %56) #22
  %65 = icmp eq i64 %56, 4
  %spec.select = select i1 %65, i64 0, i64 %.sroa.3.0.i
  %66 = sub nsw i64 %64, %spec.select
  %spec.store.select = tail call i64 @llvm.smin.i64(i64 %66, i64 16384)
  %67 = trunc i64 %spec.store.select to i32
  %68 = getelementptr inbounds nuw i8, ptr %0, i64 64
  store i32 %67, ptr %68, align 8, !tbaa !36
  br label %69

69:                                               ; preds = %RSTRING_END.exit, %20
  %.042 = phi i64 [ %21, %20 ], [ %.041, %RSTRING_END.exit ]
  ret i64 %.042
}